target datalayout = "e-m:e-p270:32:32-p271:32:32-p272:64:64-i64:64-i128:128-f80:128-n8:16:32:64-S128"
target triple = "x86_64-pc-linux-gnu"

%struct.zbee_zcl_packet = type { i8, i8, i8, i8, i16, i8, i8 }
%struct._packet_info = type { ptr, ptr, i32, i32, %struct.nstime_t, %struct.nstime_t, %struct.nstime_t, i8, ptr, ptr, ptr, ptr, %struct._address, %struct._address, %struct._address, %struct._address, %struct._address, %struct._address, i32, ptr, i8, [3 x i8], %struct.anon, i32, i32, i32, i32, ptr, i8, ptr, ptr, i16, i16, i32, i32, i16, i32, i32, ptr, ptr, ptr, i8, i8, i16, i16, i16, i32, i16, i16, ptr, ptr, ptr, ptr, ptr, i32, i32 }
%struct.nstime_t = type { i64, i32 }
%struct._address = type { i32, i32, ptr, ptr }
%struct.anon = type { i8, [3 x i8] }

@hf_zbee_zcl_ias_zone_srv_rx_cmd_id = internal global i32 0, align 4
@hf_zbee_zcl_ias_zone_srv_tx_cmd_id = internal global i32 0, align 4
@hf_zbee_zcl_ias_zone_enroll_code = internal global i32 0, align 4
@hf_zbee_zcl_ias_zone_zone_id = internal global i32 0, align 4
@hf_zbee_zcl_ias_zone_type = internal global i32 0, align 4
@hf_zbee_zcl_ias_zone_manufacturer_code = internal global i32 0, align 4
@hf_zbee_zcl_ias_zone_status = internal global i32 0, align 4
@hf_zbee_zcl_ias_zone_delay = internal global i32 0, align 4
@hf_zbee_zcl_ias_zone_ext_status = internal global i32 0, align 4
@ett_zbee_zcl_ias_zone_status = internal global i32 0, align 4
@.str.149 = private unnamed_addr constant [12 x i8] c"%s, Seq: %u\00", align 1
@.str.150 = private unnamed_addr constant [16 x i8] c"Unknown Command\00", align 1
@zbee_zcl_ias_zone_srv_rx_cmd_names = internal constant [2 x { i32, [4 x i8], ptr }] [{ i32, [4 x i8], ptr } { i32 0, [4 x i8] zeroinitializer, ptr @.str.153 }, { i32, [4 x i8], ptr } zeroinitializer], align 16
@zbee_zcl_ias_zone_srv_tx_cmd_names = internal constant [3 x { i32, [4 x i8], ptr }] [{ i32, [4 x i8], ptr } { i32 1, [4 x i8] zeroinitializer, ptr @.str.155 }, { i32, [4 x i8], ptr } { i32 0, [4 x i8] zeroinitializer, ptr @.str.156 }, { i32, [4 x i8], ptr } zeroinitializer], align 16

; Function Attrs: null_pointer_is_valid sspstrong uwtable
define internal void @dissect_zcl_ias_zone_status(ptr noundef %0, ptr noundef %1, i32 noundef %2) #0 {
  %4 = alloca ptr, align 8
  %5 = alloca ptr, align 8
  %6 = alloca i32, align 4
  store ptr %0, ptr %4, align 8
  store ptr %1, ptr %5, align 8
  store i32 %2, ptr %6, align 4
  %7 = load ptr, ptr %4, align 8
  %8 = load ptr, ptr %5, align 8
  %9 = load i32, ptr %6, align 4
  %10 = load i32, ptr @hf_zbee_zcl_ias_zone_status, align 4
  %11 = load i32, ptr @ett_zbee_zcl_ias_zone_status, align 4
  %12 = call ptr @proto_tree_add_bitmask(ptr noundef %7, ptr noundef %8, i32 noundef %9, i32 noundef %10, i32 noundef %11, ptr noundef @dissect_zcl_ias_zone_status.ias_zone_statuses, i32 noundef -2147483648)
  ret void
}

; Function Attrs: null_pointer_is_valid sspstrong uwtable
define internal i32 @dissect_zbee_zcl_ias_zone(ptr noundef %0, ptr noundef %1, ptr noundef %2, ptr noundef %3) #0 {
  %5 = alloca i32, align 4
  %6 = alloca ptr, align 8
  %7 = alloca ptr, align 8
  %8 = alloca ptr, align 8
  %9 = alloca ptr, align 8
  %10 = alloca ptr, align 8
  %11 = alloca i32, align 4
  %12 = alloca i8, align 1
  %13 = alloca i32, align 4
  store ptr %0, ptr %6, align 8
  store ptr %1, ptr %7, align 8
  store ptr %2, ptr %8, align 8
  store ptr %3, ptr %9, align 8
  call void @llvm.lifetime.start.p0(i64 8, ptr %10) #3
  call void @llvm.lifetime.start.p0(i64 4, ptr %11) #3
  store i32 0, ptr %11, align 4
  call void @llvm.lifetime.start.p0(i64 1, ptr %12) #3
  %14 = load ptr, ptr %9, align 8
  %15 = icmp eq ptr %14, null
  br i1 %15, label %16, label %17

16:                                               ; preds = %4
  store i32 0, ptr %5, align 4
  store i32 1, ptr %13, align 4
  br label %128

17:                                               ; preds = %4
  %18 = load ptr, ptr %9, align 8
  store ptr %18, ptr %10, align 8
  %19 = load ptr, ptr %10, align 8
  %20 = getelementptr inbounds nuw %struct.zbee_zcl_packet, ptr %19, i32 0, i32 6
  %21 = load i8, ptr %20, align 1
  store i8 %21, ptr %12, align 1
  %22 = load ptr, ptr %10, align 8
  %23 = getelementptr inbounds nuw %struct.zbee_zcl_packet, ptr %22, i32 0, i32 1
  %24 = load i8, ptr %23, align 1, !range !6, !noundef !7
  %25 = trunc i8 %24 to i1
  %26 = zext i1 %25 to i32
  %27 = icmp eq i32 %26, 0
  br i1 %27, label %28, label %65

28:                                               ; preds = %17
  %29 = load ptr, ptr %7, align 8
  %30 = getelementptr inbounds nuw %struct._packet_info, ptr %29, i32 0, i32 1
  %31 = load ptr, ptr %30, align 8
  %32 = load i8, ptr %12, align 1
  %33 = zext i8 %32 to i32
  %34 = call ptr @val_to_str_const(i32 noundef %33, ptr noundef @zbee_zcl_ias_zone_srv_rx_cmd_names, ptr noundef @.str.150)
  %35 = load ptr, ptr %10, align 8
  %36 = getelementptr inbounds nuw %struct.zbee_zcl_packet, ptr %35, i32 0, i32 5
  %37 = load i8, ptr %36, align 2
  %38 = zext i8 %37 to i32
  call void (ptr, i32, ptr, ...) @col_append_fstr(ptr noundef %31, i32 noundef 25, ptr noundef @.str.149, ptr noundef %34, i32 noundef %38)
  %39 = load ptr, ptr %8, align 8
  %40 = load i32, ptr @hf_zbee_zcl_ias_zone_srv_rx_cmd_id, align 4
  %41 = load ptr, ptr %6, align 8
  %42 = load i32, ptr %11, align 4
  %43 = call ptr @proto_tree_add_item(ptr noundef %39, i32 noundef %40, ptr noundef %41, i32 noundef %42, i32 noundef 1, i32 noundef -2147483648)
  %44 = load i32, ptr %11, align 4
  %45 = add i32 %44, 1
  store i32 %45, ptr %11, align 4
  %46 = load i8, ptr %12, align 1
  %47 = zext i8 %46 to i32
  switch i32 %47, label %63 [
    i32 0, label %48
  ]

48:                                               ; preds = %28
  %49 = load ptr, ptr %8, align 8
  %50 = load i32, ptr @hf_zbee_zcl_ias_zone_enroll_code, align 4
  %51 = load ptr, ptr %6, align 8
  %52 = load i32, ptr %11, align 4
  %53 = call ptr @proto_tree_add_item(ptr noundef %49, i32 noundef %50, ptr noundef %51, i32 noundef %52, i32 noundef 1, i32 noundef 0)
  %54 = load i32, ptr %11, align 4
  %55 = add i32 %54, 1
  store i32 %55, ptr %11, align 4
  %56 = load ptr, ptr %8, align 8
  %57 = load i32, ptr @hf_zbee_zcl_ias_zone_zone_id, align 4
  %58 = load ptr, ptr %6, align 8
  %59 = load i32, ptr %11, align 4
  %60 = call ptr @proto_tree_add_item(ptr noundef %56, i32 noundef %57, ptr noundef %58, i32 noundef %59, i32 noundef 1, i32 noundef 0)
  %61 = load i32, ptr %11, align 4
  %62 = add i32 %61, 1
  store i32 %62, ptr %11, align 4
  br label %64

63:                                               ; preds = %28
  br label %64

64:                                               ; preds = %63, %48
  br label %125

65:                                               ; preds = %17
  %66 = load ptr, ptr %7, align 8
  %67 = getelementptr inbounds nuw %struct._packet_info, ptr %66, i32 0, i32 1
  %68 = load ptr, ptr %67, align 8
  %69 = load i8, ptr %12, align 1
  %70 = zext i8 %69 to i32
  %71 = call ptr @val_to_str_const(i32 noundef %70, ptr noundef @zbee_zcl_ias_zone_srv_tx_cmd_names, ptr noundef @.str.150)
  %72 = load ptr, ptr %10, align 8
  %73 = getelementptr inbounds nuw %struct.zbee_zcl_packet, ptr %72, i32 0, i32 5
  %74 = load i8, ptr %73, align 2
  %75 = zext i8 %74 to i32
  call void (ptr, i32, ptr, ...) @col_append_fstr(ptr noundef %68, i32 noundef 25, ptr noundef @.str.149, ptr noundef %71, i32 noundef %75)
  %76 = load ptr, ptr %8, align 8
  %77 = load i32, ptr @hf_zbee_zcl_ias_zone_srv_tx_cmd_id, align 4
  %78 = load ptr, ptr %6, align 8
  %79 = load i32, ptr %11, align 4
  %80 = call ptr @proto_tree_add_item(ptr noundef %76, i32 noundef %77, ptr noundef %78, i32 noundef %79, i32 noundef 1, i32 noundef -2147483648)
  %81 = load i32, ptr %11, align 4
  %82 = add i32 %81, 1
  store i32 %82, ptr %11, align 4
  %83 = load i8, ptr %12, align 1
  %84 = zext i8 %83 to i32
  switch i32 %84, label %123 [
    i32 0, label %85
    i32 1, label %110
  ]

85:                                               ; preds = %65
  %86 = load ptr, ptr %8, align 8
  %87 = load ptr, ptr %6, align 8
  %88 = load i32, ptr %11, align 4
  call void @dissect_zcl_ias_zone_status(ptr noundef %86, ptr noundef %87, i32 noundef %88)
  %89 = load i32, ptr %11, align 4
  %90 = add i32 %89, 2
  store i32 %90, ptr %11, align 4
  %91 = load ptr, ptr %8, align 8
  %92 = load i32, ptr @hf_zbee_zcl_ias_zone_ext_status, align 4
  %93 = load ptr, ptr %6, align 8
  %94 = load i32, ptr %11, align 4
  %95 = call ptr @proto_tree_add_item(ptr noundef %91, i32 noundef %92, ptr noundef %93, i32 noundef %94, i32 noundef 1, i32 noundef 0)
  %96 = load i32, ptr %11, align 4
  %97 = add i32 %96, 1
  store i32 %97, ptr %11, align 4
  %98 = load ptr, ptr %8, align 8
  %99 = load i32, ptr @hf_zbee_zcl_ias_zone_zone_id, align 4
  %100 = load ptr, ptr %6, align 8
  %101 = load i32, ptr %11, align 4
  %102 = call ptr @proto_tree_add_item(ptr noundef %98, i32 noundef %99, ptr noundef %100, i32 noundef %101, i32 noundef 1, i32 noundef 0)
  %103 = load i32, ptr %11, align 4
  %104 = add i32 %103, 1
  store i32 %104, ptr %11, align 4
  %105 = load ptr, ptr %8, align 8
  %106 = load i32, ptr @hf_zbee_zcl_ias_zone_delay, align 4
  %107 = load ptr, ptr %6, align 8
  %108 = load i32, ptr %11, align 4
  %109 = call ptr @proto_tree_add_item(ptr noundef %105, i32 noundef %106, ptr noundef %107, i32 noundef %108, i32 noundef 2, i32 noundef -2147483648)
  br label %124

110:                                              ; preds = %65
  %111 = load ptr, ptr %8, align 8
  %112 = load i32, ptr @hf_zbee_zcl_ias_zone_type, align 4
  %113 = load ptr, ptr %6, align 8
  %114 = load i32, ptr %11, align 4
  %115 = call ptr @proto_tree_add_item(ptr noundef %111, i32 noundef %112, ptr noundef %113, i32 noundef %114, i32 noundef 2, i32 noundef -2147483648)
  %116 = load i32, ptr %11, align 4
  %117 = add i32 %116, 2
  store i32 %117, ptr %11, align 4
  %118 = load ptr, ptr %8, align 8
  %119 = load i32, ptr @hf_zbee_zcl_ias_zone_manufacturer_code, align 4
  %120 = load ptr, ptr %6, align 8
  %121 = load i32, ptr %11, align 4
  %122 = call ptr @proto_tree_add_item(ptr noundef %118, i32 noundef %119, ptr noundef %120, i32 noundef %121, i32 noundef 2, i32 noundef -2147483648)
  br label %124

123:                                              ; preds = %65
  br label %124

124:                                              ; preds = %123, %110, %85
  br label %125

125:                                              ; preds = %124, %64
  %126 = load ptr, ptr %6, align 8
  %127 = call i32 @tvb_reported_length(ptr noundef %126)
  store i32 %127, ptr %5, align 4
  store i32 1, ptr %13, align 4
  br label %128

128:                                              ; preds = %125, %16
  call void @llvm.lifetime.end.p0(i64 1, ptr %12) #3
  call void @llvm.lifetime.end.p0(i64 4, ptr %11) #3
  call void @llvm.lifetime.end.p0(i64 8, ptr %10) #3
  %129 = load i32, ptr %5, align 4
  ret i32 %129
}