; Function Attrs: null_pointer_is_valid sspstrong uwtable
define internal i32 @dissect_zbee_zcl_ias_zone(ptr noundef %0, ptr noundef readonly captures(none) %1, ptr noundef %2, ptr noundef readonly captures(address_is_null) %3) #0 {
  %5 = icmp eq ptr %3, null
  br i1 %5, label %50, label %6

6:                                                ; preds = %4
  %7 = getelementptr inbounds nuw i8, ptr %3, i64 7
  %8 = load i8, ptr %7, align 1
  %9 = getelementptr inbounds nuw i8, ptr %3, i64 1
  %10 = load i8, ptr %9, align 1, !range !6, !noundef !7
  %11 = icmp eq i8 %10, 0
  %12 = getelementptr inbounds nuw i8, ptr %1, i64 8
  %13 = load ptr, ptr %12, align 8
  %14 = zext i8 %8 to i32
  %15 = getelementptr inbounds nuw i8, ptr %3, i64 6
  br i1 %11, label %16, label %27

16:                                               ; preds = %6
  %17 = tail call ptr @val_to_str_const(i32 noundef %14, ptr noundef nonnull @zbee_zcl_ias_zone_srv_rx_cmd_names, ptr noundef nonnull @.str.150)
  %18 = load i8, ptr %15, align 2
  %19 = zext i8 %18 to i32
  tail call void (ptr, i32, ptr, ...) @col_append_fstr(ptr noundef %13, i32 noundef 25, ptr noundef nonnull @.str.149, ptr noundef %17, i32 noundef %19)
  %20 = load i32, ptr @hf_zbee_zcl_ias_zone_srv_rx_cmd_id, align 4
  %21 = tail call ptr @proto_tree_add_item(ptr noundef %2, i32 noundef %20, ptr noundef %0, i32 noundef 0, i32 noundef 1, i32 noundef -2147483648)
  %cond = icmp eq i8 %8, 0
  br i1 %cond, label %22, label %48

22:                                               ; preds = %16
  %23 = load i32, ptr @hf_zbee_zcl_ias_zone_enroll_code, align 4
  %24 = tail call ptr @proto_tree_add_item(ptr noundef %2, i32 noundef %23, ptr noundef %0, i32 noundef 1, i32 noundef 1, i32 noundef 0)
  %25 = load i32, ptr @hf_zbee_zcl_ias_zone_zone_id, align 4
  %26 = tail call ptr @proto_tree_add_item(ptr noundef %2, i32 noundef %25, ptr noundef %0, i32 noundef 2, i32 noundef 1, i32 noundef 0)
  br label %48

27:                                               ; preds = %6
  %28 = tail call ptr @val_to_str_const(i32 noundef %14, ptr noundef nonnull @zbee_zcl_ias_zone_srv_tx_cmd_names, ptr noundef nonnull @.str.150)
  %29 = load i8, ptr %15, align 2
  %30 = zext i8 %29 to i32
  tail call void (ptr, i32, ptr, ...) @col_append_fstr(ptr noundef %13, i32 noundef 25, ptr noundef nonnull @.str.149, ptr noundef %28, i32 noundef %30)
  %31 = load i32, ptr @hf_zbee_zcl_ias_zone_srv_tx_cmd_id, align 4
  %32 = tail call ptr @proto_tree_add_item(ptr noundef %2, i32 noundef %31, ptr noundef %0, i32 noundef 0, i32 noundef 1, i32 noundef -2147483648)
  switch i8 %8, label %48 [
    i8 0, label %33
    i8 1, label %43
  ]

33:                                               ; preds = %27
  %34 = load i32, ptr @hf_zbee_zcl_ias_zone_status, align 4
  %35 = load i32, ptr @ett_zbee_zcl_ias_zone_status, align 4
  %36 = tail call ptr @proto_tree_add_bitmask(ptr noundef %2, ptr noundef %0, i32 noundef 1, i32 noundef %34, i32 noundef %35, ptr noundef nonnull @dissect_zcl_ias_zone_status.ias_zone_statuses, i32 noundef -2147483648)
  %37 = load i32, ptr @hf_zbee_zcl_ias_zone_ext_status, align 4
  %38 = tail call ptr @proto_tree_add_item(ptr noundef %2, i32 noundef %37, ptr noundef %0, i32 noundef 3, i32 noundef 1, i32 noundef 0)
  %39 = load i32, ptr @hf_zbee_zcl_ias_zone_zone_id, align 4
  %40 = tail call ptr @proto_tree_add_item(ptr noundef %2, i32 noundef %39, ptr noundef %0, i32 noundef 4, i32 noundef 1, i32 noundef 0)
  %41 = load i32, ptr @hf_zbee_zcl_ias_zone_delay, align 4
  %42 = tail call ptr @proto_tree_add_item(ptr noundef %2, i32 noundef %41, ptr noundef %0, i32 noundef 5, i32 noundef 2, i32 noundef -2147483648)
  br label %48

43:                                               ; preds = %27
  %44 = load i32, ptr @hf_zbee_zcl_ias_zone_type, align 4
  %45 = tail call ptr @proto_tree_add_item(ptr noundef %2, i32 noundef %44, ptr noundef %0, i32 noundef 1, i32 noundef 2, i32 noundef -2147483648)
  %46 = load i32, ptr @hf_zbee_zcl_ias_zone_manufacturer_code, align 4
  %47 = tail call ptr @proto_tree_add_item(ptr noundef %2, i32 noundef %46, ptr noundef %0, i32 noundef 3, i32 noundef 2, i32 noundef -2147483648)
  br label %48

48:                                               ; preds = %33, %43, %27, %22, %16
  %49 = tail call i32 @tvb_reported_length(ptr noundef %0)
  br label %50

50:                                               ; preds = %4, %48
  %.0 = phi i32 [ %49, %48 ], [ 0, %4 ]
  ret i32 %.0
}